Certificate:
    Data:
        Version: 3 (0x2)
        Serial Number: 0 (0x0)
        Signature Algorithm: sha1WithRSAEncryption
        Issuer: C=CN, ST=Beijing, O=OpenSourceXpress Ltd., OU=security, CN=Root CA/emailAddress=worldhello.net@gmail.com
        Validity
            Not Before: Dec  2 12:38:45 2008 GMT
            Not After : Nov 25 12:38:45 2038 GMT
        Subject: C=CN, ST=Beijing, O=OpenSourceXpress Ltd., OU=security, CN=Root CA/emailAddress=worldhello.net@gmail.com
        Subject Public Key Info:
            Public Key Algorithm: rsaEncryption
            RSA Public Key: (1024 bit)
                Modulus (1024 bit):
                    00:c4:dd:42:2e:36:f7:51:d6:8f:36:01:18:ee:ae:
                    e6:36:44:ef:d1:c5:d4:91:11:cf:98:1b:4c:69:af:
                    a1:3d:a5:48:13:b2:a4:9f:1c:79:23:63:e6:d9:49:
                    dc:04:6f:b1:0a:da:4f:9b:55:58:b7:57:a0:a2:a7:
                    de:cf:e6:81:97:2f:24:e6:d9:0b:16:76:2e:68:4e:
                    c4:b6:d6:45:79:1b:cc:d5:49:03:f8:24:81:bf:73:
                    59:7a:c9:76:a1:a4:96:66:58:9a:41:43:de:4d:d4:
                    41:41:9f:8e:8a:01:e1:d4:f8:6d:72:4e:dc:1a:0e:
                    87:b8:25:10:fe:b0:d2:af:4d
                Exponent: 65537 (0x10001)
        X509v3 extensions:
            X509v3 Basic Constraints: 
                CA:FALSE
            Netscape Comment: 
                OpenSSL Generated Certificate
            X509v3 Subject Key Identifier: 
                14:FF:E3:77:2F:9A:8D:A8:37:43:F5:51:9F:A4:1A:A3:0F:4F:4F:18
            X509v3 Authority Key Identifier: 
                keyid:14:FF:E3:77:2F:9A:8D:A8:37:43:F5:51:9F:A4:1A:A3:0F:4F:4F:18

    Signature Algorithm: sha1WithRSAEncryption
        8f:7e:23:45:ee:b6:92:93:c4:db:f3:b6:e1:10:70:54:de:e1:
        a3:cc:01:e2:0a:e3:90:ea:3d:63:69:86:76:4c:ea:6e:f6:14:
        d9:17:ad:c8:74:c3:0f:28:89:bf:88:e5:30:e3:81:78:38:cc:
        f4:53:a5:10:3c:47:3e:e4:39:96:fc:89:41:e0:d9:46:e9:7b:
        d8:99:7b:65:08:3d:35:8f:04:35:0f:2c:14:2c:77:2c:ac:6f:
        1a:5c:ed:81:3b:b6:9f:d8:1f:45:5e:13:6a:fc:c9:bd:5b:5d:
        72:8c:ef:bf:3b:02:7f:8e:d4:48:db:85:95:b1:a1:fd:1e:f0:
        3a:60
-----BEGIN CERTIFICATE-----
MIIDDTCCAnagAwIBAgIBADANBgkqhkiG9w0BAQUFADCBjTELMAkGA1UEBhMCQ04x
EDAOBgNVBAgTB0JlaWppbmcxHjAcBgNVBAoTFU9wZW5Tb3VyY2VYcHJlc3MgTHRk
LjERMA8GA1UECxMIc2VjdXJpdHkxEDAOBgNVBAMTB1Jvb3QgQ0ExJzAlBgkqhkiG
9w0BCQEWGHdvcmxkaGVsbG8ubmV0QGdtYWlsLmNvbTAeFw0wODEyMDIxMjM4NDVa
Fw0zODExMjUxMjM4NDVaMIGNMQswCQYDVQQGEwJDTjEQMA4GA1UECBMHQmVpamlu
ZzEeMBwGA1UEChMVT3BlblNvdXJjZVhwcmVzcyBMdGQuMREwDwYDVQQLEwhzZWN1
cml0eTEQMA4GA1UEAxMHUm9vdCBDQTEnMCUGCSqGSIb3DQEJARYYd29ybGRoZWxs
by5uZXRAZ21haWwuY29tMIGfMA0GCSqGSIb3DQEBAQUAA4GNADCBiQKBgQDE3UIu
NvdR1o82ARjuruY2RO/RxdSREc+YG0xpr6E9pUgTsqSfHHkjY+bZSdwEb7EK2k+b
VVi3V6Cip97P5oGXLyTm2QsWdi5oTsS21kV5G8zVSQP4JIG/c1l6yXahpJZmWJpB
Q95N1EFBn46KAeHU+G1yTtwaDoe4JRD+sNKvTQIDAQABo3sweTAJBgNVHRMEAjAA
MCwGCWCGSAGG+EIBDQQfFh1PcGVuU1NMIEdlbmVyYXRlZCBDZXJ0aWZpY2F0ZTAd
BgNVHQ4EFgQUFP/jdy+ajag3Q/VRn6Qaow9PTxgwHwYDVR0jBBgwFoAUFP/jdy+a
jag3Q/VRn6Qaow9PTxgwDQYJKoZIhvcNAQEFBQADgYEAj34jRe62kpPE2/O24RBw
VN7ho8wB4grjkOo9Y2mGdkzqbvYU2RetyHTDDyiJv4jlMOOBeDjM9FOlEDxHPuQ5
lvyJQeDZRul72Jl7ZQg9NY8ENQ8sFCx3LKxvGlztgTu2n9gfRV4TavzJvVtdcozv
vzsCf47USNuFlbGh/R7wOmA=
-----END CERTIFICATE-----
