Certificate:
    Data:
        Version: 3 (0x2)
        Serial Number: 24 (0x18)
        Signature Algorithm: sha1WithRSAEncryption
        Issuer: C=CN, ST=Beijing, O=OpenSourceXpress Ltd., OU=security, CN=Root CA/emailAddress=worldhello.net@gmail.com
        Validity
            Not Before: Sep  3 12:14:42 2009 GMT
            Not After : Sep  1 12:14:42 2019 GMT
        Subject: C=CN, ST=foobar, L=foobar, O=foobar, OU=rd, CN=cosign-daemon/emailAddress=root@foo.bar
        Subject Public Key Info:
            Public Key Algorithm: rsaEncryption
            RSA Public Key: (1024 bit)
                Modulus (1024 bit):
                    00:cc:6e:b0:3a:49:93:b3:35:83:8b:cf:58:39:69:
                    8f:d3:27:e4:28:8b:50:de:2a:2d:1a:b0:2a:a8:c6:
                    e3:13:b9:60:75:45:be:59:27:78:23:e6:47:e2:b4:
                    7f:aa:b7:10:ee:cc:17:88:c2:60:f4:d5:8f:e6:4b:
                    b2:67:81:9f:20:fd:2a:9c:1f:ce:6e:9e:d8:27:ac:
                    12:70:d5:39:36:0f:57:f0:b8:45:2c:51:c0:b5:94:
                    ee:25:4e:8b:0c:4b:a3:ab:1b:fb:69:26:79:cf:5a:
                    c1:b4:f1:c2:d7:ae:a6:55:e5:98:b3:7b:31:93:18:
                    b5:9f:53:80:bd:d3:80:c4:99
                Exponent: 65537 (0x10001)
        X509v3 extensions:
            X509v3 Basic Constraints: 
                CA:FALSE
            Netscape Comment: 
                OpenSSL Generated Certificate
            X509v3 Subject Key Identifier: 
                CC:5A:CD:95:EB:08:AA:F2:38:9C:64:36:D8:CC:95:0B:D3:1D:53:DE
            X509v3 Authority Key Identifier: 
                keyid:14:FF:E3:77:2F:9A:8D:A8:37:43:F5:51:9F:A4:1A:A3:0F:4F:4F:18

    Signature Algorithm: sha1WithRSAEncryption
        1a:c8:95:3d:cd:75:81:02:86:31:1f:a7:c5:4e:d9:a6:60:c6:
        06:45:ee:c9:5f:28:75:a2:ad:ce:6e:cb:f7:75:3b:3d:db:26:
        1b:e4:1a:9c:84:06:07:87:8d:5f:00:9c:a0:a8:01:40:c9:a2:
        a4:d5:ff:56:e6:0b:f0:e9:83:26:9d:67:f5:86:d7:39:91:7a:
        48:04:e0:cb:d6:f5:bb:6f:ce:6b:31:37:d2:5f:08:c8:11:85:
        74:a8:00:eb:28:a0:b4:a3:a7:41:ba:19:c4:d3:4e:0d:0d:1c:
        2d:34:04:91:cb:17:ce:f2:71:86:5f:15:d5:78:02:e2:2b:92:
        5d:e3
-----BEGIN CERTIFICATE-----
MIIDAjCCAmugAwIBAgIBGDANBgkqhkiG9w0BAQUFADCBjTELMAkGA1UEBhMCQ04x
EDAOBgNVBAgTB0JlaWppbmcxHjAcBgNVBAoTFU9wZW5Tb3VyY2VYcHJlc3MgTHRk
LjERMA8GA1UECxMIc2VjdXJpdHkxEDAOBgNVBAMTB1Jvb3QgQ0ExJzAlBgkqhkiG
9w0BCQEWGHdvcmxkaGVsbG8ubmV0QGdtYWlsLmNvbTAeFw0wOTA5MDMxMjE0NDJa
Fw0xOTA5MDExMjE0NDJaMIGCMQswCQYDVQQGEwJDTjEPMA0GA1UECBMGZm9vYmFy
MQ8wDQYDVQQHEwZmb29iYXIxDzANBgNVBAoTBmZvb2JhcjELMAkGA1UECxMCcmQx
FjAUBgNVBAMTDWNvc2lnbi1kYWVtb24xGzAZBgkqhkiG9w0BCQEWDHJvb3RAZm9v
LmJhcjCBnzANBgkqhkiG9w0BAQEFAAOBjQAwgYkCgYEAzG6wOkmTszWDi89YOWmP
0yfkKItQ3iotGrAqqMbjE7lgdUW+WSd4I+ZH4rR/qrcQ7swXiMJg9NWP5kuyZ4Gf
IP0qnB/Obp7YJ6wScNU5Ng9X8LhFLFHAtZTuJU6LDEujqxv7aSZ5z1rBtPHC166m
VeWYs3sxkxi1n1OAvdOAxJkCAwEAAaN7MHkwCQYDVR0TBAIwADAsBglghkgBhvhC
AQ0EHxYdT3BlblNTTCBHZW5lcmF0ZWQgQ2VydGlmaWNhdGUwHQYDVR0OBBYEFMxa
zZXrCKryOJxkNtjMlQvTHVPeMB8GA1UdIwQYMBaAFBT/43cvmo2oN0P1UZ+kGqMP
T08YMA0GCSqGSIb3DQEBBQUAA4GBABrIlT3NdYEChjEfp8VO2aZgxgZF7slfKHWi
rc5uy/d1Oz3bJhvkGpyEBgeHjV8AnKCoAUDJoqTV/1bmC/DpgyadZ/WG1zmRekgE
4MvW9btvzmsxN9JfCMgRhXSoAOsooLSjp0G6GcTTTg0NHC00BJHLF87ycYZfFdV4
AuIrkl3j
-----END CERTIFICATE-----
