Certificate:
    Data:
        Version: 3 (0x2)
        Serial Number: 2 (0x2)
        Signature Algorithm: sha1WithRSAEncryption
        Issuer: C=CN, ST=Beijing, O=OpenSourceXpress Ltd., OU=security, CN=Root CA/emailAddress=worldhello.net@gmail.com
        Validity
            Not Before: Dec  3 05:35:16 2008 GMT
            Not After : Dec  1 05:35:16 2018 GMT
        Subject: C=CN, ST=foobar, L=foobar, O=foobar, OU=rd, CN=cgi-1/emailAddress=root@foo.bar
        Subject Public Key Info:
            Public Key Algorithm: rsaEncryption
            RSA Public Key: (1024 bit)
                Modulus (1024 bit):
                    00:a2:ca:e9:84:62:b4:ae:85:db:66:68:72:79:08:
                    29:a3:45:98:01:4f:c0:04:0b:1b:33:17:e2:ac:a9:
                    24:b6:1d:43:a9:40:70:b5:ec:48:e9:42:82:27:5a:
                    43:20:c1:47:4a:dc:91:11:b4:32:85:b6:b1:c4:62:
                    f3:f0:5b:bb:7e:67:d1:5f:44:8b:50:1f:e0:e0:28:
                    1f:08:75:35:e1:5a:0d:83:a2:fc:23:2c:9c:d2:d5:
                    3c:79:18:94:15:37:4d:9b:c0:65:4d:15:84:8c:02:
                    72:01:44:2b:64:0a:50:9f:7f:2a:bc:57:c1:01:c2:
                    4e:76:3e:c4:39:72:e1:59:a9
                Exponent: 65537 (0x10001)
        X509v3 extensions:
            X509v3 Basic Constraints: 
                CA:FALSE
            Netscape Comment: 
                OpenSSL Generated Certificate
            X509v3 Subject Key Identifier: 
                61:D1:A5:1B:03:0F:08:34:BA:2A:C5:5A:7D:12:46:87:7C:83:B3:09
            X509v3 Authority Key Identifier: 
                keyid:14:FF:E3:77:2F:9A:8D:A8:37:43:F5:51:9F:A4:1A:A3:0F:4F:4F:18

    Signature Algorithm: sha1WithRSAEncryption
        76:b9:9a:2d:08:e4:3f:d9:a1:d5:cd:57:89:59:34:fb:05:67:
        95:6c:0f:4d:cc:13:5d:ab:cc:cd:30:07:cd:9f:32:b2:0d:b5:
        c1:5b:65:5d:eb:3a:b4:d4:a4:7e:a0:00:12:9c:5e:05:a7:4f:
        6e:41:ea:c0:ad:49:0d:ac:2d:33:98:b5:d6:2a:fb:5d:fc:37:
        cf:38:79:9f:61:53:ee:6d:f4:83:ec:91:0a:4e:bf:2d:61:79:
        9e:58:ef:b7:80:4b:66:7d:0f:f4:8f:87:75:1c:4e:10:91:9b:
        fa:21:f5:f1:fc:7a:4d:5c:11:f1:f3:0c:7f:05:31:28:23:ed:
        3b:e7
-----BEGIN CERTIFICATE-----
MIIC+TCCAmKgAwIBAgIBAjANBgkqhkiG9w0BAQUFADCBjTELMAkGA1UEBhMCQ04x
EDAOBgNVBAgTB0JlaWppbmcxHjAcBgNVBAoTFU9wZW5Tb3VyY2VYcHJlc3MgTHRk
LjERMA8GA1UECxMIc2VjdXJpdHkxEDAOBgNVBAMTB1Jvb3QgQ0ExJzAlBgkqhkiG
9w0BCQEWGHdvcmxkaGVsbG8ubmV0QGdtYWlsLmNvbTAeFw0wODEyMDMwNTM1MTZa
Fw0xODEyMDEwNTM1MTZaMHoxCzAJBgNVBAYTAkNOMQ8wDQYDVQQIEwZmb29iYXIx
DzANBgNVBAcTBmZvb2JhcjEPMA0GA1UEChMGZm9vYmFyMQswCQYDVQQLEwJyZDEO
MAwGA1UEAxMFY2dpLTExGzAZBgkqhkiG9w0BCQEWDHJvb3RAZm9vLmJhcjCBnzAN
BgkqhkiG9w0BAQEFAAOBjQAwgYkCgYEAosrphGK0roXbZmhyeQgpo0WYAU/ABAsb
MxfirKkkth1DqUBwtexI6UKCJ1pDIMFHStyREbQyhbaxxGLz8Fu7fmfRX0SLUB/g
4CgfCHU14VoNg6L8Iyyc0tU8eRiUFTdNm8BlTRWEjAJyAUQrZApQn38qvFfBAcJO
dj7EOXLhWakCAwEAAaN7MHkwCQYDVR0TBAIwADAsBglghkgBhvhCAQ0EHxYdT3Bl
blNTTCBHZW5lcmF0ZWQgQ2VydGlmaWNhdGUwHQYDVR0OBBYEFGHRpRsDDwg0uirF
Wn0SRod8g7MJMB8GA1UdIwQYMBaAFBT/43cvmo2oN0P1UZ+kGqMPT08YMA0GCSqG
SIb3DQEBBQUAA4GBAHa5mi0I5D/ZodXNV4lZNPsFZ5VsD03ME12rzM0wB82fMrIN
tcFbZV3rOrTUpH6gABKcXgWnT25B6sCtSQ2sLTOYtdYq+138N884eZ9hU+5t9IPs
kQpOvy1heZ5Y77eAS2Z9D/SPh3UcThCRm/oh9fH8ek1cEfHzDH8FMSgj7Tvn
-----END CERTIFICATE-----
