Certificate:
    Data:
        Version: 3 (0x2)
        Serial Number: 1 (0x1)
        Signature Algorithm: sha1WithRSAEncryption
        Issuer: C=CN, ST=Beijing, O=OpenSourceXpress Ltd., OU=security, CN=Root CA/emailAddress=worldhello.net@gmail.com
        Validity
            Not Before: Dec  3 05:30:15 2008 GMT
            Not After : Dec  1 05:30:15 2018 GMT
        Subject: C=CN, ST=foobar, L=foobar, O=foobar, OU=rd, CN=cosignd.foo.bar/emailAddress=root@foo.bar
        Subject Public Key Info:
            Public Key Algorithm: rsaEncryption
            RSA Public Key: (1024 bit)
                Modulus (1024 bit):
                    00:dc:45:1f:21:21:7a:61:01:d5:4a:30:53:88:a9:
                    2d:81:8a:90:fe:ef:ef:c4:25:52:ca:cf:fb:7b:ea:
                    f8:1c:05:d1:d0:dc:35:e8:b6:0d:c3:7a:67:8a:d4:
                    88:71:38:c6:ba:b5:37:f0:0e:01:e7:0e:f4:06:ca:
                    95:cd:21:b6:2e:0b:28:3f:af:e1:c0:46:9c:e2:96:
                    e9:21:f6:c9:b3:fc:39:47:6c:70:ed:13:0b:c7:8c:
                    a4:0b:71:fd:00:7e:02:dd:a4:ed:81:29:ce:f4:8d:
                    9e:78:c3:bc:b7:56:c5:e1:50:f2:a1:60:c8:79:be:
                    63:16:06:8c:86:6d:31:e3:c5
                Exponent: 65537 (0x10001)
        X509v3 extensions:
            X509v3 Basic Constraints: 
                CA:FALSE
            Netscape Comment: 
                OpenSSL Generated Certificate
            X509v3 Subject Key Identifier: 
                7E:E0:B1:49:19:37:EB:9A:53:87:B7:AD:16:A6:C3:DD:9A:91:DA:1F
            X509v3 Authority Key Identifier: 
                keyid:14:FF:E3:77:2F:9A:8D:A8:37:43:F5:51:9F:A4:1A:A3:0F:4F:4F:18

    Signature Algorithm: sha1WithRSAEncryption
        73:2d:56:4e:96:82:0b:76:d7:c7:ca:f9:fc:8c:90:23:01:16:
        f4:78:7b:c5:a2:76:bd:d3:fb:62:26:a8:fd:cf:18:93:d3:ab:
        dd:d7:9b:ec:72:01:75:45:5a:9d:b3:50:06:c4:08:9e:a4:54:
        ed:ed:ba:1b:29:32:fb:af:4e:55:be:fd:a8:ce:bc:91:38:01:
        50:0b:f6:36:65:9c:c3:65:37:1d:17:7f:12:00:ad:8c:24:a6:
        75:d6:c9:18:1e:63:73:4c:2b:91:f2:c9:24:99:d7:10:83:b1:
        7b:db:9c:d5:59:87:d2:c8:11:cc:db:0d:b9:74:24:17:78:da:
        1c:99
-----BEGIN CERTIFICATE-----
MIIDBDCCAm2gAwIBAgIBATANBgkqhkiG9w0BAQUFADCBjTELMAkGA1UEBhMCQ04x
EDAOBgNVBAgTB0JlaWppbmcxHjAcBgNVBAoTFU9wZW5Tb3VyY2VYcHJlc3MgTHRk
LjERMA8GA1UECxMIc2VjdXJpdHkxEDAOBgNVBAMTB1Jvb3QgQ0ExJzAlBgkqhkiG
9w0BCQEWGHdvcmxkaGVsbG8ubmV0QGdtYWlsLmNvbTAeFw0wODEyMDMwNTMwMTVa
Fw0xODEyMDEwNTMwMTVaMIGEMQswCQYDVQQGEwJDTjEPMA0GA1UECBMGZm9vYmFy
MQ8wDQYDVQQHEwZmb29iYXIxDzANBgNVBAoTBmZvb2JhcjELMAkGA1UECxMCcmQx
GDAWBgNVBAMTD2Nvc2lnbmQuZm9vLmJhcjEbMBkGCSqGSIb3DQEJARYMcm9vdEBm
b28uYmFyMIGfMA0GCSqGSIb3DQEBAQUAA4GNADCBiQKBgQDcRR8hIXphAdVKMFOI
qS2BipD+7+/EJVLKz/t76vgcBdHQ3DXotg3DemeK1IhxOMa6tTfwDgHnDvQGypXN
IbYuCyg/r+HARpzilukh9smz/DlHbHDtEwvHjKQLcf0AfgLdpO2BKc70jZ54w7y3
VsXhUPKhYMh5vmMWBoyGbTHjxQIDAQABo3sweTAJBgNVHRMEAjAAMCwGCWCGSAGG
+EIBDQQfFh1PcGVuU1NMIEdlbmVyYXRlZCBDZXJ0aWZpY2F0ZTAdBgNVHQ4EFgQU
fuCxSRk365pTh7etFqbD3ZqR2h8wHwYDVR0jBBgwFoAUFP/jdy+ajag3Q/VRn6Qa
ow9PTxgwDQYJKoZIhvcNAQEFBQADgYEAcy1WTpaCC3bXx8r5/IyQIwEW9Hh7xaJ2
vdP7Yiao/c8Yk9Or3deb7HIBdUVanbNQBsQInqRU7e26Gyky+69OVb79qM68kTgB
UAv2NmWcw2U3HRd/EgCtjCSmddbJGB5jc0wrkfLJJJnXEIOxe9uc1VmH0sgRzNsN
uXQkF3jaHJk=
-----END CERTIFICATE-----
