Certificate:
    Data:
        Version: 3 (0x2)
        Serial Number: 3 (0x3)
        Signature Algorithm: sha1WithRSAEncryption
        Issuer: C=CN, ST=Beijing, O=OpenSourceXpress Ltd., OU=security, CN=Root CA/emailAddress=worldhello.net@gmail.com
        Validity
            Not Before: Dec  3 05:36:57 2008 GMT
            Not After : Dec  1 05:36:57 2018 GMT
        Subject: C=CN, ST=foobar, L=foobar, O=foobar, OU=rd, CN=filter-1/emailAddress=root@foo.bar
        Subject Public Key Info:
            Public Key Algorithm: rsaEncryption
            RSA Public Key: (1024 bit)
                Modulus (1024 bit):
                    00:b0:b6:a0:17:c8:b2:31:2b:36:44:16:00:2a:07:
                    15:a2:7e:be:28:6f:b4:f2:dc:30:77:f7:31:99:01:
                    b1:26:38:8a:91:e4:95:34:2a:2a:24:a1:0b:e4:52:
                    81:58:50:de:f1:fe:61:bf:4c:9b:d0:dd:c9:3a:98:
                    af:d2:22:77:52:0d:e8:a2:1b:99:0d:a0:fa:f9:76:
                    8a:d8:a1:a0:06:d6:96:58:36:63:67:97:d9:b3:e6:
                    7c:6b:27:68:72:e4:98:a7:22:86:93:ba:c0:a6:b9:
                    cc:33:6a:e9:78:16:8d:e3:0c:ae:f9:4c:73:f9:ec:
                    45:06:0f:7f:6e:36:6f:01:e1
                Exponent: 65537 (0x10001)
        X509v3 extensions:
            X509v3 Basic Constraints: 
                CA:FALSE
            Netscape Comment: 
                OpenSSL Generated Certificate
            X509v3 Subject Key Identifier: 
                F8:C8:5A:60:07:06:17:BD:AC:3D:29:76:C5:36:18:15:3A:58:4C:D1
            X509v3 Authority Key Identifier: 
                keyid:14:FF:E3:77:2F:9A:8D:A8:37:43:F5:51:9F:A4:1A:A3:0F:4F:4F:18

    Signature Algorithm: sha1WithRSAEncryption
        2e:0d:bf:98:fb:e5:1b:fc:6d:35:3c:e9:65:42:cc:8a:58:9c:
        c8:08:1f:2e:00:f8:b4:54:61:cc:b0:b9:23:43:44:16:5a:8f:
        1e:ee:d7:dd:27:5d:90:7a:3a:9e:9a:4b:1e:00:5f:ac:09:d7:
        38:be:7f:bf:01:c4:b2:6a:28:e0:e7:4e:c2:fc:61:b5:4a:57:
        c3:19:4a:36:69:c0:ef:71:f9:b4:2e:dd:cb:7d:43:1f:3d:6f:
        c2:04:2d:a3:7f:d3:23:fc:63:5d:f3:f8:12:86:13:38:0e:bd:
        53:d9:ee:47:21:bd:71:e6:a8:0b:a1:cb:77:d0:17:d9:71:5d:
        c2:86
-----BEGIN CERTIFICATE-----
MIIC/DCCAmWgAwIBAgIBAzANBgkqhkiG9w0BAQUFADCBjTELMAkGA1UEBhMCQ04x
EDAOBgNVBAgTB0JlaWppbmcxHjAcBgNVBAoTFU9wZW5Tb3VyY2VYcHJlc3MgTHRk
LjERMA8GA1UECxMIc2VjdXJpdHkxEDAOBgNVBAMTB1Jvb3QgQ0ExJzAlBgkqhkiG
9w0BCQEWGHdvcmxkaGVsbG8ubmV0QGdtYWlsLmNvbTAeFw0wODEyMDMwNTM2NTda
Fw0xODEyMDEwNTM2NTdaMH0xCzAJBgNVBAYTAkNOMQ8wDQYDVQQIEwZmb29iYXIx
DzANBgNVBAcTBmZvb2JhcjEPMA0GA1UEChMGZm9vYmFyMQswCQYDVQQLEwJyZDER
MA8GA1UEAxMIZmlsdGVyLTExGzAZBgkqhkiG9w0BCQEWDHJvb3RAZm9vLmJhcjCB
nzANBgkqhkiG9w0BAQEFAAOBjQAwgYkCgYEAsLagF8iyMSs2RBYAKgcVon6+KG+0
8twwd/cxmQGxJjiKkeSVNCoqJKEL5FKBWFDe8f5hv0yb0N3JOpiv0iJ3Ug3oohuZ
DaD6+XaK2KGgBtaWWDZjZ5fZs+Z8aydocuSYpyKGk7rAprnMM2rpeBaN4wyu+Uxz
+exFBg9/bjZvAeECAwEAAaN7MHkwCQYDVR0TBAIwADAsBglghkgBhvhCAQ0EHxYd
T3BlblNTTCBHZW5lcmF0ZWQgQ2VydGlmaWNhdGUwHQYDVR0OBBYEFPjIWmAHBhe9
rD0pdsU2GBU6WEzRMB8GA1UdIwQYMBaAFBT/43cvmo2oN0P1UZ+kGqMPT08YMA0G
CSqGSIb3DQEBBQUAA4GBAC4Nv5j75Rv8bTU86WVCzIpYnMgIHy4A+LRUYcywuSND
RBZajx7u190nXZB6Op6aSx4AX6wJ1zi+f78BxLJqKODnTsL8YbVKV8MZSjZpwO9x
+bQu3ct9Qx89b8IELaN/0yP8Y13z+BKGEzgOvVPZ7kchvXHmqAuhy3fQF9lxXcKG
-----END CERTIFICATE-----
