Certificate:
    Data:
        Version: 3 (0x2)
        Serial Number: 5 (0x5)
        Signature Algorithm: sha1WithRSAEncryption
        Issuer: C=CN, ST=Beijing, O=OpenSourceXpress Ltd., OU=security, CN=Root CA/emailAddress=worldhello.net@gmail.com
        Validity
            Not Before: Dec  3 05:53:28 2008 GMT
            Not After : Dec  1 05:53:28 2018 GMT
        Subject: C=CN, ST=foobar, L=foobar, O=foobar, OU=rd, CN=filter-2/emailAddress=root@foo.bar
        Subject Public Key Info:
            Public Key Algorithm: rsaEncryption
            RSA Public Key: (1024 bit)
                Modulus (1024 bit):
                    00:d5:ac:99:a8:27:e9:00:be:8f:23:2f:d9:57:3f:
                    cb:93:ed:88:12:75:24:f7:c3:35:a5:2c:80:74:d0:
                    06:e9:08:ae:5e:b5:0b:89:f6:c4:71:a6:36:92:4b:
                    ab:2f:49:1a:c6:57:d0:6d:d0:fc:e5:09:17:74:27:
                    53:1b:18:df:3f:4a:1a:f1:45:65:1e:c0:9d:d0:a1:
                    d5:35:a6:4a:b6:58:71:19:bd:f3:ce:83:5e:28:5d:
                    f0:a8:eb:8a:a9:08:f1:3c:06:b4:fa:70:af:a7:5f:
                    a3:39:9a:f5:9f:a8:7a:c2:cc:d9:d4:5c:e9:d9:75:
                    7a:3f:e6:b8:d0:65:6b:25:19
                Exponent: 65537 (0x10001)
        X509v3 extensions:
            X509v3 Basic Constraints: 
                CA:FALSE
            Netscape Comment: 
                OpenSSL Generated Certificate
            X509v3 Subject Key Identifier: 
                22:C2:62:74:A5:95:52:34:C6:F4:D2:A7:B9:BB:8E:1B:B0:23:60:DA
            X509v3 Authority Key Identifier: 
                keyid:14:FF:E3:77:2F:9A:8D:A8:37:43:F5:51:9F:A4:1A:A3:0F:4F:4F:18

    Signature Algorithm: sha1WithRSAEncryption
        63:a2:ee:98:1e:ea:de:56:e6:ca:46:51:b8:a6:5d:4b:5c:99:
        18:fa:cb:2e:85:c4:68:ba:d2:28:f9:8d:81:ba:c1:0a:a2:1c:
        d0:02:21:0a:3d:58:1a:3e:32:ec:bf:f2:81:0a:ec:53:af:fa:
        2a:eb:26:84:0d:df:2d:90:95:ac:fb:1e:64:aa:a5:28:1a:55:
        e9:cb:c5:11:e6:cb:e1:07:18:84:de:6b:a2:55:62:92:b0:ff:
        52:ef:19:c7:23:a6:8f:89:80:1d:fc:f8:c8:2c:f4:f0:dc:49:
        4e:74:c6:53:c9:46:61:a3:eb:03:59:21:c9:2d:c8:f6:a7:a9:
        f0:27
-----BEGIN CERTIFICATE-----
MIIC/DCCAmWgAwIBAgIBBTANBgkqhkiG9w0BAQUFADCBjTELMAkGA1UEBhMCQ04x
EDAOBgNVBAgTB0JlaWppbmcxHjAcBgNVBAoTFU9wZW5Tb3VyY2VYcHJlc3MgTHRk
LjERMA8GA1UECxMIc2VjdXJpdHkxEDAOBgNVBAMTB1Jvb3QgQ0ExJzAlBgkqhkiG
9w0BCQEWGHdvcmxkaGVsbG8ubmV0QGdtYWlsLmNvbTAeFw0wODEyMDMwNTUzMjha
Fw0xODEyMDEwNTUzMjhaMH0xCzAJBgNVBAYTAkNOMQ8wDQYDVQQIEwZmb29iYXIx
DzANBgNVBAcTBmZvb2JhcjEPMA0GA1UEChMGZm9vYmFyMQswCQYDVQQLEwJyZDER
MA8GA1UEAxMIZmlsdGVyLTIxGzAZBgkqhkiG9w0BCQEWDHJvb3RAZm9vLmJhcjCB
nzANBgkqhkiG9w0BAQEFAAOBjQAwgYkCgYEA1ayZqCfpAL6PIy/ZVz/Lk+2IEnUk
98M1pSyAdNAG6QiuXrULifbEcaY2kkurL0kaxlfQbdD85QkXdCdTGxjfP0oa8UVl
HsCd0KHVNaZKtlhxGb3zzoNeKF3wqOuKqQjxPAa0+nCvp1+jOZr1n6h6wszZ1Fzp
2XV6P+a40GVrJRkCAwEAAaN7MHkwCQYDVR0TBAIwADAsBglghkgBhvhCAQ0EHxYd
T3BlblNTTCBHZW5lcmF0ZWQgQ2VydGlmaWNhdGUwHQYDVR0OBBYEFCLCYnSllVI0
xvTSp7m7jhuwI2DaMB8GA1UdIwQYMBaAFBT/43cvmo2oN0P1UZ+kGqMPT08YMA0G
CSqGSIb3DQEBBQUAA4GBAGOi7pge6t5W5spGUbimXUtcmRj6yy6FxGi60ij5jYG6
wQqiHNACIQo9WBo+Muy/8oEK7FOv+irrJoQN3y2Qlaz7HmSqpSgaVenLxRHmy+EH
GITea6JVYpKw/1LvGccjpo+JgB38+Mgs9PDcSU50xlPJRmGj6wNZIcktyPanqfAn
-----END CERTIFICATE-----
