Certificate:
    Data:
        Version: 3 (0x2)
        Serial Number: 4 (0x4)
        Signature Algorithm: sha1WithRSAEncryption
        Issuer: C=CN, ST=Beijing, O=OpenSourceXpress Ltd., OU=security, CN=Root CA/emailAddress=worldhello.net@gmail.com
        Validity
            Not Before: Dec  3 05:42:29 2008 GMT
            Not After : Dec  1 05:42:29 2018 GMT
        Subject: C=CN, ST=foobar, L=foobar, O=foobar, OU=web, CN=weblogin.foo.bar/emailAddress=master@foo.bar
        Subject Public Key Info:
            Public Key Algorithm: rsaEncryption
            RSA Public Key: (1024 bit)
                Modulus (1024 bit):
                    00:b1:e7:65:78:da:b9:5d:71:42:f9:44:12:f8:3d:
                    92:b9:1d:d7:fd:57:f0:13:c4:7a:8c:33:63:b7:45:
                    7c:18:32:0a:65:22:ba:73:1c:57:39:43:3a:ac:d9:
                    6d:29:c8:52:01:4c:61:48:b8:8b:f4:f6:42:d5:64:
                    31:22:6e:80:93:94:30:c6:ae:55:da:ed:c9:b0:44:
                    54:38:f0:94:41:e8:63:5a:a3:41:73:bd:58:6c:47:
                    9c:e1:7d:10:73:f5:85:d5:a2:1e:b0:83:ed:7f:c9:
                    4c:f2:bc:31:a7:8a:79:9c:f0:da:14:66:0f:35:06:
                    ab:55:d6:11:eb:d9:88:da:01
                Exponent: 65537 (0x10001)
        X509v3 extensions:
            X509v3 Basic Constraints: 
                CA:FALSE
            Netscape Comment: 
                OpenSSL Generated Certificate
            X509v3 Subject Key Identifier: 
                96:D7:55:C2:01:58:4C:0D:E1:E6:23:52:2A:A0:F8:E2:31:8A:B8:F9
            X509v3 Authority Key Identifier: 
                keyid:14:FF:E3:77:2F:9A:8D:A8:37:43:F5:51:9F:A4:1A:A3:0F:4F:4F:18

    Signature Algorithm: sha1WithRSAEncryption
        c0:6b:75:8c:9f:4b:04:2a:6f:05:f6:26:19:50:64:07:43:65:
        1f:96:f2:d1:0a:66:c9:c8:ff:e8:e2:1c:d9:3e:33:44:3b:4c:
        b9:8a:ce:99:7f:92:e6:74:67:af:4c:83:61:47:cc:f2:70:56:
        0b:36:8c:50:c9:8d:3b:80:91:64:29:95:c5:62:53:ba:d2:55:
        44:f8:8b:e6:c1:8f:c5:3f:47:f8:aa:36:48:97:79:b4:b0:a7:
        7d:75:dd:26:70:a3:7b:5e:68:17:ae:95:74:73:39:9a:89:28:
        43:b4:0c:43:22:c4:d8:9c:1b:73:c1:0a:e1:7f:bd:98:1c:6c:
        94:f2
-----BEGIN CERTIFICATE-----
MIIDCDCCAnGgAwIBAgIBBDANBgkqhkiG9w0BAQUFADCBjTELMAkGA1UEBhMCQ04x
EDAOBgNVBAgTB0JlaWppbmcxHjAcBgNVBAoTFU9wZW5Tb3VyY2VYcHJlc3MgTHRk
LjERMA8GA1UECxMIc2VjdXJpdHkxEDAOBgNVBAMTB1Jvb3QgQ0ExJzAlBgkqhkiG
9w0BCQEWGHdvcmxkaGVsbG8ubmV0QGdtYWlsLmNvbTAeFw0wODEyMDMwNTQyMjla
Fw0xODEyMDEwNTQyMjlaMIGIMQswCQYDVQQGEwJDTjEPMA0GA1UECBMGZm9vYmFy
MQ8wDQYDVQQHEwZmb29iYXIxDzANBgNVBAoTBmZvb2JhcjEMMAoGA1UECxMDd2Vi
MRkwFwYDVQQDExB3ZWJsb2dpbi5mb28uYmFyMR0wGwYJKoZIhvcNAQkBFg5tYXN0
ZXJAZm9vLmJhcjCBnzANBgkqhkiG9w0BAQEFAAOBjQAwgYkCgYEAsedleNq5XXFC
+UQS+D2SuR3X/VfwE8R6jDNjt0V8GDIKZSK6cxxXOUM6rNltKchSAUxhSLiL9PZC
1WQxIm6Ak5Qwxq5V2u3JsERUOPCUQehjWqNBc71YbEec4X0Qc/WF1aIesIPtf8lM
8rwxp4p5nPDaFGYPNQarVdYR69mI2gECAwEAAaN7MHkwCQYDVR0TBAIwADAsBglg
hkgBhvhCAQ0EHxYdT3BlblNTTCBHZW5lcmF0ZWQgQ2VydGlmaWNhdGUwHQYDVR0O
BBYEFJbXVcIBWEwN4eYjUiqg+OIxirj5MB8GA1UdIwQYMBaAFBT/43cvmo2oN0P1
UZ+kGqMPT08YMA0GCSqGSIb3DQEBBQUAA4GBAMBrdYyfSwQqbwX2JhlQZAdDZR+W
8tEKZsnI/+jiHNk+M0Q7TLmKzpl/kuZ0Z69Mg2FHzPJwVgs2jFDJjTuAkWQplcVi
U7rSVUT4i+bBj8U/R/iqNkiXebSwp3113SZwo3teaBeulXRzOZqJKEO0DEMixNic
G3PBCuF/vZgcbJTy
-----END CERTIFICATE-----
